; Function Attrs: nounwind uwtable
define range(i32 -3, 1) i32 @CVodeSetJacFn(ptr noundef %0, ptr noundef %1) local_unnamed_addr #0 {
  %3 = icmp eq ptr %0, null
  br i1 %3, label %4, label %5

4:                                                ; preds = %2
  tail call void (ptr, i32, i32, ptr, ptr, ptr, ...) @cvProcessError(ptr noundef null, i32 noundef -1, i32 noundef 1930, ptr noundef nonnull @__func__.CVodeSetJacFn, ptr noundef nonnull @.str, ptr noundef nonnull @.str.1) #13
  br label %cvLs_AccessLMem.exit.thread

5:                                                ; preds = %2
  %6 = getelementptr inbounds nuw i8, ptr %0, i64 1040
  %7 = load ptr, ptr %6, align 8, !tbaa !69
  %8 = icmp eq ptr %7, null
  br i1 %8, label %9, label %cvLs_AccessLMem.exit

9:                                                ; preds = %5
  tail call void (ptr, i32, i32, ptr, ptr, ptr, ...) @cvProcessError(ptr noundef nonnull %0, i32 noundef -2, i32 noundef 1937, ptr noundef nonnull @__func__.CVodeSetJacFn, ptr noundef nonnull @.str, ptr noundef nonnull @.str.30) #13
  br label %cvLs_AccessLMem.exit.thread

cvLs_AccessLMem.exit:                             ; preds = %5
  %.not8 = icmp eq ptr %1, null
  br i1 %.not8, label %.critedge, label %10

10:                                               ; preds = %cvLs_AccessLMem.exit
  %11 = getelementptr inbounds nuw i8, ptr %7, i64 80
  %12 = load ptr, ptr %11, align 8, !tbaa !61
  %13 = icmp eq ptr %12, null
  br i1 %13, label %14, label %15

14:                                               ; preds = %10
  tail call void (ptr, i32, i32, ptr, ptr, ptr, ...) @cvProcessError(ptr noundef nonnull %0, i32 noundef -3, i32 noundef 296, ptr noundef nonnull @__func__.CVodeSetJacFn, ptr noundef nonnull @.str, ptr noundef nonnull @.str.12) #13
  br label %cvLs_AccessLMem.exit.thread

15:                                               ; preds = %10
  %16 = getelementptr inbounds nuw i8, ptr %7, i64 8
  store i32 0, ptr %16, align 8, !tbaa !41
  %17 = getelementptr inbounds nuw i8, ptr %7, i64 16
  store ptr %1, ptr %17, align 8, !tbaa !42
  %18 = getelementptr inbounds nuw i8, ptr %0, i64 24
  %19 = load ptr, ptr %18, align 8, !tbaa !53
  br label %22

.critedge:                                        ; preds = %cvLs_AccessLMem.exit
  %20 = getelementptr inbounds nuw i8, ptr %7, i64 8
  store i32 1, ptr %20, align 8, !tbaa !41
  %21 = getelementptr inbounds nuw i8, ptr %7, i64 16
  store ptr @cvLsDQJac, ptr %21, align 8, !tbaa !42
  br label %22

22:                                               ; preds = %.critedge, %15
  %.sink = phi ptr [ %0, %.critedge ], [ %19, %15 ]
  %23 = getelementptr inbounds nuw i8, ptr %7, i64 24
  store ptr %.sink, ptr %23, align 8, !tbaa !43
  %24 = getelementptr inbounds nuw i8, ptr %7, i64 288
  store i32 0, ptr %24, align 8, !tbaa !50
  %25 = getelementptr inbounds nuw i8, ptr %7, i64 296
  store ptr @cvLsLinSys, ptr %25, align 8, !tbaa !51
  %26 = getelementptr inbounds nuw i8, ptr %7, i64 304
  store ptr %0, ptr %26, align 8, !tbaa !52
  br label %cvLs_AccessLMem.exit.thread

cvLs_AccessLMem.exit.thread:                      ; preds = %9, %4, %22, %14
  %.0 = phi i32 [ -3, %14 ], [ 0, %22 ], [ -2, %9 ], [ -1, %4 ]
  ret i32 %.0
}